target datalayout = "e-m:e-p270:32:32-p271:32:32-p272:64:64-i64:64-i128:128-f80:128-n8:16:32:64-S128"
target triple = "x86_64-pc-linux-gnu"

; Function Attrs: inlinehint nounwind uwtable
define internal i32 @pg_rotate_left32(i32 noundef %0, i32 noundef %1) #2 {
  %3 = alloca i32, align 4
  %4 = alloca i32, align 4
  store i32 %0, ptr %3, align 4
  store i32 %1, ptr %4, align 4
  %5 = load i32, ptr %3, align 4
  %6 = load i32, ptr %4, align 4
  %7 = shl i32 %5, %6
  %8 = load i32, ptr %3, align 4
  %9 = load i32, ptr %4, align 4
  %10 = sub i32 32, %9
  %11 = lshr i32 %8, %10
  %12 = or i32 %7, %11
  ret i32 %12
}

; Function Attrs: nounwind uwtable
define i32 @hash_bytes_uint32(i32 noundef %0) #0 {
  %2 = alloca i32, align 4
  %3 = alloca i32, align 4
  %4 = alloca i32, align 4
  %5 = alloca i32, align 4
  store i32 %0, ptr %2, align 4
  call void @llvm.lifetime.start.p0(i64 4, ptr %3) #4
  call void @llvm.lifetime.start.p0(i64 4, ptr %4) #4
  call void @llvm.lifetime.start.p0(i64 4, ptr %5) #4
  store i32 -1636608428, ptr %5, align 4
  store i32 -1636608428, ptr %4, align 4
  store i32 -1636608428, ptr %3, align 4
  %6 = load i32, ptr %2, align 4
  %7 = load i32, ptr %3, align 4
  %8 = add i32 %7, %6
  store i32 %8, ptr %3, align 4
  %9 = load i32, ptr %4, align 4
  %10 = load i32, ptr %5, align 4
  %11 = xor i32 %10, %9
  store i32 %11, ptr %5, align 4
  %12 = load i32, ptr %4, align 4
  %13 = call i32 @pg_rotate_left32(i32 noundef %12, i32 noundef 14)
  %14 = load i32, ptr %5, align 4
  %15 = sub i32 %14, %13
  store i32 %15, ptr %5, align 4
  %16 = load i32, ptr %5, align 4
  %17 = load i32, ptr %3, align 4
  %18 = xor i32 %17, %16
  store i32 %18, ptr %3, align 4
  %19 = load i32, ptr %5, align 4
  %20 = call i32 @pg_rotate_left32(i32 noundef %19, i32 noundef 11)
  %21 = load i32, ptr %3, align 4
  %22 = sub i32 %21, %20
  store i32 %22, ptr %3, align 4
  %23 = load i32, ptr %3, align 4
  %24 = load i32, ptr %4, align 4
  %25 = xor i32 %24, %23
  store i32 %25, ptr %4, align 4
  %26 = load i32, ptr %3, align 4
  %27 = call i32 @pg_rotate_left32(i32 noundef %26, i32 noundef 25)
  %28 = load i32, ptr %4, align 4
  %29 = sub i32 %28, %27
  store i32 %29, ptr %4, align 4
  %30 = load i32, ptr %4, align 4
  %31 = load i32, ptr %5, align 4
  %32 = xor i32 %31, %30
  store i32 %32, ptr %5, align 4
  %33 = load i32, ptr %4, align 4
  %34 = call i32 @pg_rotate_left32(i32 noundef %33, i32 noundef 16)
  %35 = load i32, ptr %5, align 4
  %36 = sub i32 %35, %34
  store i32 %36, ptr %5, align 4
  %37 = load i32, ptr %5, align 4
  %38 = load i32, ptr %3, align 4
  %39 = xor i32 %38, %37
  store i32 %39, ptr %3, align 4
  %40 = load i32, ptr %5, align 4
  %41 = call i32 @pg_rotate_left32(i32 noundef %40, i32 noundef 4)
  %42 = load i32, ptr %3, align 4
  %43 = sub i32 %42, %41
  store i32 %43, ptr %3, align 4
  %44 = load i32, ptr %3, align 4
  %45 = load i32, ptr %4, align 4
  %46 = xor i32 %45, %44
  store i32 %46, ptr %4, align 4
  %47 = load i32, ptr %3, align 4
  %48 = call i32 @pg_rotate_left32(i32 noundef %47, i32 noundef 14)
  %49 = load i32, ptr %4, align 4
  %50 = sub i32 %49, %48
  store i32 %50, ptr %4, align 4
  %51 = load i32, ptr %4, align 4
  %52 = load i32, ptr %5, align 4
  %53 = xor i32 %52, %51
  store i32 %53, ptr %5, align 4
  %54 = load i32, ptr %4, align 4
  %55 = call i32 @pg_rotate_left32(i32 noundef %54, i32 noundef 24)
  %56 = load i32, ptr %5, align 4
  %57 = sub i32 %56, %55
  store i32 %57, ptr %5, align 4
  %58 = load i32, ptr %5, align 4
  call void @llvm.lifetime.end.p0(i64 4, ptr %5) #4
  call void @llvm.lifetime.end.p0(i64 4, ptr %4) #4
  call void @llvm.lifetime.end.p0(i64 4, ptr %3) #4
  ret i32 %58
}