; Function Attrs: mustprogress nofree norecurse nosync nounwind willreturn memory(none) uwtable
define i32 @hash_bytes_uint32(i32 noundef %0) local_unnamed_addr #1 {
  %2 = add i32 %0, -1636608428
  %3 = xor i32 %2, 711645284
  %4 = add i32 %3, -1455628627
  %5 = xor i32 %4, -1636608428
  %6 = tail call noundef i32 @llvm.fshl.i32(i32 %4, i32 %4, i32 25)
  %7 = sub i32 %5, %6
  %8 = xor i32 %7, 711645284
  %9 = tail call noundef i32 @llvm.fshl.i32(i32 %7, i32 %7, i32 16)
  %10 = sub i32 %8, %9
  %11 = xor i32 %10, %4
  %12 = tail call noundef i32 @llvm.fshl.i32(i32 %10, i32 %10, i32 4)
  %13 = sub i32 %11, %12
  %14 = xor i32 %13, %7
  %15 = tail call noundef i32 @llvm.fshl.i32(i32 %13, i32 %13, i32 14)
  %16 = sub i32 %14, %15
  %17 = xor i32 %16, %10
  %18 = tail call noundef i32 @llvm.fshl.i32(i32 %16, i32 %16, i32 24)
  %19 = sub i32 %17, %18
  ret i32 %19
}